; Function Attrs: inlinehint mustprogress nounwind uwtable
define internal void @_ZN5faiss12_GLOBAL__N_128PreTransformDistanceComputerD0Ev(ptr noundef nonnull align 8 dereferenceable(32) initializes((0, 8)) %0) unnamed_addr #9 align 2 personality ptr @__gxx_personality_v0 {
  store ptr getelementptr inbounds nuw inrange(-16, 48) (i8, ptr @_ZTVN5faiss12_GLOBAL__N_128PreTransformDistanceComputerE, i64 16), ptr %0, align 8, !tbaa !42
  %2 = getelementptr inbounds nuw i8, ptr %0, i64 24
  %3 = load ptr, ptr %2, align 8, !tbaa !88
  %.not.i.i = icmp eq ptr %3, null
  br i1 %.not.i.i, label %_ZNSt10unique_ptrIA_KfSt14default_deleteIS1_EED2Ev.exit.i, label %_ZNKSt14default_deleteIA_KfEclIS0_EENSt9enable_ifIXsr14is_convertibleIPA_T_PS1_EE5valueEvE4typeEPS5_.exit.i.i

_ZNKSt14default_deleteIA_KfEclIS0_EENSt9enable_ifIXsr14is_convertibleIPA_T_PS1_EE5valueEvE4typeEPS5_.exit.i.i: ; preds = %1
  tail call void @_ZdaPv(ptr noundef nonnull %3) #21
  br label %_ZNSt10unique_ptrIA_KfSt14default_deleteIS1_EED2Ev.exit.i

_ZNSt10unique_ptrIA_KfSt14default_deleteIS1_EED2Ev.exit.i: ; preds = %_ZNKSt14default_deleteIA_KfEclIS0_EENSt9enable_ifIXsr14is_convertibleIPA_T_PS1_EE5valueEvE4typeEPS5_.exit.i.i, %1
  store ptr null, ptr %2, align 8, !tbaa !88
  %4 = getelementptr inbounds nuw i8, ptr %0, i64 16
  %5 = load ptr, ptr %4, align 8, !tbaa !77
  %.not.i1.i = icmp eq ptr %5, null
  br i1 %.not.i1.i, label %_ZN5faiss12_GLOBAL__N_128PreTransformDistanceComputerD2Ev.exit, label %_ZNKSt14default_deleteIN5faiss16DistanceComputerEEclEPS1_.exit.i.i

_ZNKSt14default_deleteIN5faiss16DistanceComputerEEclEPS1_.exit.i.i: ; preds = %_ZNSt10unique_ptrIA_KfSt14default_deleteIS1_EED2Ev.exit.i
  %6 = load ptr, ptr %5, align 8, !tbaa !42
  %7 = getelementptr inbounds nuw i8, ptr %6, i64 40
  %8 = load ptr, ptr %7, align 8
  tail call void %8(ptr noundef nonnull align 8 dereferenceable(8) %5) #20
  br label %_ZN5faiss12_GLOBAL__N_128PreTransformDistanceComputerD2Ev.exit

_ZN5faiss12_GLOBAL__N_128PreTransformDistanceComputerD2Ev.exit: ; preds = %_ZNSt10unique_ptrIA_KfSt14default_deleteIS1_EED2Ev.exit.i, %_ZNKSt14default_deleteIN5faiss16DistanceComputerEEclEPS1_.exit.i.i
  tail call void @_ZdlPvm(ptr noundef nonnull %0, i64 noundef 32) #21
  ret void
}